target datalayout = "e-m:e-p270:32:32-p271:32:32-p272:64:64-i64:64-i128:128-f80:128-n8:16:32:64-S128"
target triple = "x86_64-pc-linux-gnu"

%struct.UCMTable = type { ptr, i32, i32, ptr, i32, i32, ptr, i32, i32, ptr, i8, i8, i8 }

; Function Attrs: mustprogress nounwind uwtable
define void @ucm_resetTable(ptr noundef %0) #8 {
  %2 = alloca ptr, align 8
  store ptr %0, ptr %2, align 8, !tbaa !3
  %3 = load ptr, ptr %2, align 8, !tbaa !3
  %4 = icmp ne ptr %3, null
  br i1 %4, label %5, label %18

5:                                                ; preds = %1
  %6 = load ptr, ptr %2, align 8, !tbaa !3
  %7 = getelementptr inbounds nuw %struct.UCMTable, ptr %6, i32 0, i32 2
  store i32 0, ptr %7, align 4, !tbaa !31
  %8 = load ptr, ptr %2, align 8, !tbaa !3
  %9 = getelementptr inbounds nuw %struct.UCMTable, ptr %8, i32 0, i32 11
  store i8 0, ptr %9, align 1, !tbaa !49
  %10 = load ptr, ptr %2, align 8, !tbaa !3
  %11 = getelementptr inbounds nuw %struct.UCMTable, ptr %10, i32 0, i32 10
  store i8 0, ptr %11, align 8, !tbaa !47
  %12 = load ptr, ptr %2, align 8, !tbaa !3
  %13 = getelementptr inbounds nuw %struct.UCMTable, ptr %12, i32 0, i32 5
  store i32 0, ptr %13, align 4, !tbaa !45
  %14 = load ptr, ptr %2, align 8, !tbaa !3
  %15 = getelementptr inbounds nuw %struct.UCMTable, ptr %14, i32 0, i32 8
  store i32 0, ptr %15, align 4, !tbaa !46
  %16 = load ptr, ptr %2, align 8, !tbaa !3
  %17 = getelementptr inbounds nuw %struct.UCMTable, ptr %16, i32 0, i32 12
  store i8 0, ptr %17, align 2, !tbaa !35
  br label %18

18:                                               ; preds = %5, %1
  ret void
}