; Function Attrs: mustprogress nofree norecurse nosync nounwind willreturn memory(argmem: write) uwtable
define void @ucm_resetTable(ptr noundef writeonly %0) local_unnamed_addr #11 {
  %.not = icmp eq ptr %0, null
  br i1 %.not, label %9, label %2

2:                                                ; preds = %1
  %3 = getelementptr inbounds nuw i8, ptr %0, i64 12
  store i32 0, ptr %3, align 4, !tbaa !24
  %4 = getelementptr inbounds nuw i8, ptr %0, i64 57
  store i8 0, ptr %4, align 1, !tbaa !45
  %5 = getelementptr inbounds nuw i8, ptr %0, i64 56
  store i8 0, ptr %5, align 8, !tbaa !43
  %6 = getelementptr inbounds nuw i8, ptr %0, i64 28
  store i32 0, ptr %6, align 4, !tbaa !41
  %7 = getelementptr inbounds nuw i8, ptr %0, i64 44
  store i32 0, ptr %7, align 4, !tbaa !42
  %8 = getelementptr inbounds nuw i8, ptr %0, i64 58
  store i8 0, ptr %8, align 2, !tbaa !28
  br label %9

9:                                                ; preds = %2, %1
  ret void
}